; Function Attrs: mustprogress uwtable
define hidden void @_ZN3sat15model_converter14add_elim_stackERNS0_5entryE(ptr noundef nonnull align 8 captures(none) dereferenceable(40) %0, ptr noundef nonnull align 8 dereferenceable(32) %1) local_unnamed_addr #3 align 2 {
  %3 = getelementptr inbounds nuw i8, ptr %0, i64 32
  %4 = load ptr, ptr %3, align 8, !tbaa !180
  %5 = icmp eq ptr %4, null
  br i1 %5, label %_ZN15ref_vector_coreIN3sat15model_converter10elim_stackE21ref_unmanaged_wrapperIS2_EE7inc_refEPS2_.exit.i, label %_ZNK6vectorISt4pairIjN3sat7literalEELb0EjE5emptyEv.exit

_ZNK6vectorISt4pairIjN3sat7literalEELb0EjE5emptyEv.exit: ; preds = %2
  %6 = getelementptr inbounds i8, ptr %4, i64 -4
  %7 = load i32, ptr %6, align 4, !tbaa !9
  %8 = icmp eq i32 %7, 0
  br i1 %8, label %_ZN15ref_vector_coreIN3sat15model_converter10elim_stackE21ref_unmanaged_wrapperIS2_EE7inc_refEPS2_.exit.i, label %9

9:                                                ; preds = %_ZNK6vectorISt4pairIjN3sat7literalEELb0EjE5emptyEv.exit
  %10 = tail call noalias noundef ptr @_ZN6memory8allocateEm(i64 noundef 16)
  %11 = getelementptr inbounds nuw i8, ptr %10, i64 8
  %12 = load ptr, ptr %3, align 8, !tbaa !205
  store ptr %12, ptr %11, align 8, !tbaa !205
  store ptr null, ptr %3, align 8, !tbaa !205
  %13 = load i32, ptr @_ZN3satL7counterE, align 4, !tbaa !9
  %14 = add i32 %13, 1
  store i32 %14, ptr @_ZN3satL7counterE, align 4, !tbaa !9
  store i32 %14, ptr %10, align 8, !tbaa !206
  %15 = getelementptr inbounds nuw i8, ptr %10, i64 4
  store i32 1, ptr %15, align 4, !tbaa !208
  br label %_ZN15ref_vector_coreIN3sat15model_converter10elim_stackE21ref_unmanaged_wrapperIS2_EE7inc_refEPS2_.exit.i

_ZN15ref_vector_coreIN3sat15model_converter10elim_stackE21ref_unmanaged_wrapperIS2_EE7inc_refEPS2_.exit.i: ; preds = %2, %_ZNK6vectorISt4pairIjN3sat7literalEELb0EjE5emptyEv.exit, %9
  %16 = phi ptr [ null, %9 ], [ %4, %_ZNK6vectorISt4pairIjN3sat7literalEELb0EjE5emptyEv.exit ], [ null, %2 ]
  %17 = phi ptr [ %10, %9 ], [ null, %_ZNK6vectorISt4pairIjN3sat7literalEELb0EjE5emptyEv.exit ], [ null, %2 ]
  %18 = getelementptr inbounds nuw i8, ptr %1, i64 24
  %19 = load ptr, ptr %18, align 8, !tbaa !197
  %20 = icmp eq ptr %19, null
  br i1 %20, label %27, label %21

21:                                               ; preds = %_ZN15ref_vector_coreIN3sat15model_converter10elim_stackE21ref_unmanaged_wrapperIS2_EE7inc_refEPS2_.exit.i
  %22 = getelementptr inbounds i8, ptr %19, i64 -4
  %23 = load i32, ptr %22, align 4, !tbaa !9
  %24 = getelementptr inbounds i8, ptr %19, i64 -8
  %25 = load i32, ptr %24, align 4, !tbaa !9
  %26 = icmp eq i32 %23, %25
  br i1 %26, label %27, label %_ZN15ref_vector_coreIN3sat15model_converter10elim_stackE21ref_unmanaged_wrapperIS2_EE9push_backEPS2_.exit

27:                                               ; preds = %21, %_ZN15ref_vector_coreIN3sat15model_converter10elim_stackE21ref_unmanaged_wrapperIS2_EE7inc_refEPS2_.exit.i
  tail call void @_ZN6vectorIPN3sat15model_converter10elim_stackELb0EjE13expand_vectorEv(ptr noundef nonnull align 8 dereferenceable(8) %18)
  %.pre.i.i = load ptr, ptr %18, align 8, !tbaa !197
  %.phi.trans.insert.i.i = getelementptr inbounds i8, ptr %.pre.i.i, i64 -4
  %.pre2.i.i = load i32, ptr %.phi.trans.insert.i.i, align 4, !tbaa !9
  %.pre = load ptr, ptr %3, align 8, !tbaa !180
  br label %_ZN15ref_vector_coreIN3sat15model_converter10elim_stackE21ref_unmanaged_wrapperIS2_EE9push_backEPS2_.exit

_ZN15ref_vector_coreIN3sat15model_converter10elim_stackE21ref_unmanaged_wrapperIS2_EE9push_backEPS2_.exit: ; preds = %21, %27
  %28 = phi ptr [ %.pre, %27 ], [ %16, %21 ]
  %29 = phi i32 [ %.pre2.i.i, %27 ], [ %23, %21 ]
  %30 = phi ptr [ %.pre.i.i, %27 ], [ %19, %21 ]
  %31 = getelementptr inbounds i8, ptr %30, i64 -4
  %32 = zext i32 %29 to i64
  %33 = getelementptr inbounds nuw ptr, ptr %30, i64 %32
  store ptr %17, ptr %33, align 8, !tbaa !198
  %34 = add i32 %29, 1
  store i32 %34, ptr %31, align 4, !tbaa !9
  %.not.i = icmp eq ptr %28, null
  br i1 %.not.i, label %_ZN6vectorISt4pairIjN3sat7literalEELb0EjE5resetEv.exit, label %35

35:                                               ; preds = %_ZN15ref_vector_coreIN3sat15model_converter10elim_stackE21ref_unmanaged_wrapperIS2_EE9push_backEPS2_.exit
  %36 = getelementptr inbounds i8, ptr %28, i64 -4
  store i32 0, ptr %36, align 4, !tbaa !9
  br label %_ZN6vectorISt4pairIjN3sat7literalEELb0EjE5resetEv.exit

_ZN6vectorISt4pairIjN3sat7literalEELb0EjE5resetEv.exit: ; preds = %_ZN15ref_vector_coreIN3sat15model_converter10elim_stackE21ref_unmanaged_wrapperIS2_EE9push_backEPS2_.exit, %35
  ret void
}